target datalayout = "e-m:e-p270:32:32-p271:32:32-p272:64:64-i64:64-i128:128-f80:128-n8:16:32:64-S128"
target triple = "x86_64-pc-linux-gnu"

%struct.hwloc_infos_s = type { ptr, i32, i32 }
%struct.hwloc_obj = type { i32, ptr, i32, ptr, i64, ptr, i32, i32, ptr, ptr, ptr, i32, ptr, ptr, i32, ptr, ptr, ptr, i32, i32, ptr, i32, ptr, i32, ptr, ptr, ptr, ptr, ptr, %struct.hwloc_infos_s, ptr, i64 }

; Function Attrs: nounwind uwtable
define internal void @propagate_nodeset(ptr noundef %0) #0 {
  %2 = alloca ptr, align 8
  %3 = alloca ptr, align 8
  store ptr %0, ptr %2, align 8, !tbaa !37
  call void @llvm.lifetime.start.p0(i64 8, ptr %3) #14
  %4 = load ptr, ptr %2, align 8, !tbaa !37
  %5 = getelementptr inbounds nuw %struct.hwloc_obj, ptr %4, i32 0, i32 27
  %6 = load ptr, ptr %5, align 8, !tbaa !76
  %7 = icmp ne ptr %6, null
  br i1 %7, label %12, label %8

8:                                                ; preds = %1
  %9 = call noalias ptr @hwloc_bitmap_alloc()
  %10 = load ptr, ptr %2, align 8, !tbaa !37
  %11 = getelementptr inbounds nuw %struct.hwloc_obj, ptr %10, i32 0, i32 27
  store ptr %9, ptr %11, align 8, !tbaa !76
  br label %12

12:                                               ; preds = %8, %1
  %13 = load ptr, ptr %2, align 8, !tbaa !37
  %14 = getelementptr inbounds nuw %struct.hwloc_obj, ptr %13, i32 0, i32 10
  %15 = load ptr, ptr %14, align 8, !tbaa !144
  %16 = icmp ne ptr %15, null
  br i1 %16, label %17, label %27

17:                                               ; preds = %12
  %18 = load ptr, ptr %2, align 8, !tbaa !37
  %19 = getelementptr inbounds nuw %struct.hwloc_obj, ptr %18, i32 0, i32 27
  %20 = load ptr, ptr %19, align 8, !tbaa !76
  %21 = load ptr, ptr %2, align 8, !tbaa !37
  %22 = getelementptr inbounds nuw %struct.hwloc_obj, ptr %21, i32 0, i32 10
  %23 = load ptr, ptr %22, align 8, !tbaa !144
  %24 = getelementptr inbounds nuw %struct.hwloc_obj, ptr %23, i32 0, i32 27
  %25 = load ptr, ptr %24, align 8, !tbaa !76
  %26 = call i32 @hwloc_bitmap_copy(ptr noundef %20, ptr noundef %25)
  br label %31

27:                                               ; preds = %12
  %28 = load ptr, ptr %2, align 8, !tbaa !37
  %29 = getelementptr inbounds nuw %struct.hwloc_obj, ptr %28, i32 0, i32 27
  %30 = load ptr, ptr %29, align 8, !tbaa !76
  call void @hwloc_bitmap_zero(ptr noundef %30)
  br label %31

31:                                               ; preds = %27, %17
  %32 = load ptr, ptr %2, align 8, !tbaa !37
  %33 = getelementptr inbounds nuw %struct.hwloc_obj, ptr %32, i32 0, i32 28
  %34 = load ptr, ptr %33, align 8, !tbaa !77
  %35 = icmp ne ptr %34, null
  br i1 %35, label %43, label %36

36:                                               ; preds = %31
  %37 = load ptr, ptr %2, align 8, !tbaa !37
  %38 = getelementptr inbounds nuw %struct.hwloc_obj, ptr %37, i32 0, i32 27
  %39 = load ptr, ptr %38, align 8, !tbaa !76
  %40 = call noalias ptr @hwloc_bitmap_dup(ptr noundef %39)
  %41 = load ptr, ptr %2, align 8, !tbaa !37
  %42 = getelementptr inbounds nuw %struct.hwloc_obj, ptr %41, i32 0, i32 28
  store ptr %40, ptr %42, align 8, !tbaa !77
  br label %54

43:                                               ; preds = %31
  %44 = load ptr, ptr %2, align 8, !tbaa !37
  %45 = getelementptr inbounds nuw %struct.hwloc_obj, ptr %44, i32 0, i32 28
  %46 = load ptr, ptr %45, align 8, !tbaa !77
  %47 = load ptr, ptr %2, align 8, !tbaa !37
  %48 = getelementptr inbounds nuw %struct.hwloc_obj, ptr %47, i32 0, i32 28
  %49 = load ptr, ptr %48, align 8, !tbaa !77
  %50 = load ptr, ptr %2, align 8, !tbaa !37
  %51 = getelementptr inbounds nuw %struct.hwloc_obj, ptr %50, i32 0, i32 27
  %52 = load ptr, ptr %51, align 8, !tbaa !76
  %53 = call i32 @hwloc_bitmap_or(ptr noundef %46, ptr noundef %49, ptr noundef %52)
  br label %54

54:                                               ; preds = %43, %36
  %55 = load ptr, ptr %2, align 8, !tbaa !37
  %56 = getelementptr inbounds nuw %struct.hwloc_obj, ptr %55, i32 0, i32 20
  %57 = load ptr, ptr %56, align 8, !tbaa !132
  store ptr %57, ptr %3, align 8, !tbaa !37
  br label %58

58:                                               ; preds = %82, %54
  %59 = load ptr, ptr %3, align 8, !tbaa !37
  %60 = icmp ne ptr %59, null
  br i1 %60, label %61, label %86

61:                                               ; preds = %58
  %62 = load ptr, ptr %2, align 8, !tbaa !37
  %63 = getelementptr inbounds nuw %struct.hwloc_obj, ptr %62, i32 0, i32 27
  %64 = load ptr, ptr %63, align 8, !tbaa !76
  %65 = load ptr, ptr %2, align 8, !tbaa !37
  %66 = getelementptr inbounds nuw %struct.hwloc_obj, ptr %65, i32 0, i32 27
  %67 = load ptr, ptr %66, align 8, !tbaa !76
  %68 = load ptr, ptr %3, align 8, !tbaa !37
  %69 = getelementptr inbounds nuw %struct.hwloc_obj, ptr %68, i32 0, i32 27
  %70 = load ptr, ptr %69, align 8, !tbaa !76
  %71 = call i32 @hwloc_bitmap_or(ptr noundef %64, ptr noundef %67, ptr noundef %70)
  %72 = load ptr, ptr %2, align 8, !tbaa !37
  %73 = getelementptr inbounds nuw %struct.hwloc_obj, ptr %72, i32 0, i32 28
  %74 = load ptr, ptr %73, align 8, !tbaa !77
  %75 = load ptr, ptr %2, align 8, !tbaa !37
  %76 = getelementptr inbounds nuw %struct.hwloc_obj, ptr %75, i32 0, i32 28
  %77 = load ptr, ptr %76, align 8, !tbaa !77
  %78 = load ptr, ptr %3, align 8, !tbaa !37
  %79 = getelementptr inbounds nuw %struct.hwloc_obj, ptr %78, i32 0, i32 28
  %80 = load ptr, ptr %79, align 8, !tbaa !77
  %81 = call i32 @hwloc_bitmap_or(ptr noundef %74, ptr noundef %77, ptr noundef %80)
  br label %82

82:                                               ; preds = %61
  %83 = load ptr, ptr %3, align 8, !tbaa !37
  %84 = getelementptr inbounds nuw %struct.hwloc_obj, ptr %83, i32 0, i32 12
  %85 = load ptr, ptr %84, align 8, !tbaa !82
  store ptr %85, ptr %3, align 8, !tbaa !37
  br label %58, !llvm.loop !256

86:                                               ; preds = %58
  %87 = load ptr, ptr %2, align 8, !tbaa !37
  %88 = getelementptr inbounds nuw %struct.hwloc_obj, ptr %87, i32 0, i32 16
  %89 = load ptr, ptr %88, align 8, !tbaa !130
  store ptr %89, ptr %3, align 8, !tbaa !37
  br label %90

90:                                               ; preds = %95, %86
  %91 = load ptr, ptr %3, align 8, !tbaa !37
  %92 = icmp ne ptr %91, null
  br i1 %92, label %93, label %99

93:                                               ; preds = %90
  %94 = load ptr, ptr %3, align 8, !tbaa !37
  call void @propagate_nodeset(ptr noundef %94)
  br label %95

95:                                               ; preds = %93
  %96 = load ptr, ptr %3, align 8, !tbaa !37
  %97 = getelementptr inbounds nuw %struct.hwloc_obj, ptr %96, i32 0, i32 12
  %98 = load ptr, ptr %97, align 8, !tbaa !82
  store ptr %98, ptr %3, align 8, !tbaa !37
  br label %90, !llvm.loop !257

99:                                               ; preds = %90
  %100 = load ptr, ptr %2, align 8, !tbaa !37
  %101 = getelementptr inbounds nuw %struct.hwloc_obj, ptr %100, i32 0, i32 16
  %102 = load ptr, ptr %101, align 8, !tbaa !130
  store ptr %102, ptr %3, align 8, !tbaa !37
  br label %103

103:                                              ; preds = %127, %99
  %104 = load ptr, ptr %3, align 8, !tbaa !37
  %105 = icmp ne ptr %104, null
  br i1 %105, label %106, label %131

106:                                              ; preds = %103
  %107 = load ptr, ptr %2, align 8, !tbaa !37
  %108 = getelementptr inbounds nuw %struct.hwloc_obj, ptr %107, i32 0, i32 27
  %109 = load ptr, ptr %108, align 8, !tbaa !76
  %110 = load ptr, ptr %2, align 8, !tbaa !37
  %111 = getelementptr inbounds nuw %struct.hwloc_obj, ptr %110, i32 0, i32 27
  %112 = load ptr, ptr %111, align 8, !tbaa !76
  %113 = load ptr, ptr %3, align 8, !tbaa !37
  %114 = getelementptr inbounds nuw %struct.hwloc_obj, ptr %113, i32 0, i32 27
  %115 = load ptr, ptr %114, align 8, !tbaa !76
  %116 = call i32 @hwloc_bitmap_or(ptr noundef %109, ptr noundef %112, ptr noundef %115)
  %117 = load ptr, ptr %2, align 8, !tbaa !37
  %118 = getelementptr inbounds nuw %struct.hwloc_obj, ptr %117, i32 0, i32 28
  %119 = load ptr, ptr %118, align 8, !tbaa !77
  %120 = load ptr, ptr %2, align 8, !tbaa !37
  %121 = getelementptr inbounds nuw %struct.hwloc_obj, ptr %120, i32 0, i32 28
  %122 = load ptr, ptr %121, align 8, !tbaa !77
  %123 = load ptr, ptr %3, align 8, !tbaa !37
  %124 = getelementptr inbounds nuw %struct.hwloc_obj, ptr %123, i32 0, i32 28
  %125 = load ptr, ptr %124, align 8, !tbaa !77
  %126 = call i32 @hwloc_bitmap_or(ptr noundef %119, ptr noundef %122, ptr noundef %125)
  br label %127

127:                                              ; preds = %106
  %128 = load ptr, ptr %3, align 8, !tbaa !37
  %129 = getelementptr inbounds nuw %struct.hwloc_obj, ptr %128, i32 0, i32 12
  %130 = load ptr, ptr %129, align 8, !tbaa !82
  store ptr %130, ptr %3, align 8, !tbaa !37
  br label %103, !llvm.loop !258

131:                                              ; preds = %103
  call void @llvm.lifetime.end.p0(i64 8, ptr %3) #14
  ret void
}