; Function Attrs: nounwind uwtable
define internal fastcc void @propagate_nodeset(ptr noundef captures(none) %0) unnamed_addr #5 {
  %2 = getelementptr inbounds nuw i8, ptr %0, i64 200
  %3 = load ptr, ptr %2, align 8, !tbaa !83
  %.not = icmp eq ptr %3, null
  br i1 %.not, label %4, label %6

4:                                                ; preds = %1
  %5 = tail call noalias ptr @hwloc_bitmap_alloc() #34
  store ptr %5, ptr %2, align 8, !tbaa !83
  br label %6

6:                                                ; preds = %4, %1
  %7 = phi ptr [ %5, %4 ], [ %3, %1 ]
  %8 = getelementptr inbounds nuw i8, ptr %0, i64 72
  %9 = load ptr, ptr %8, align 8, !tbaa !52
  %.not36 = icmp eq ptr %9, null
  br i1 %.not36, label %14, label %10

10:                                               ; preds = %6
  %11 = getelementptr inbounds nuw i8, ptr %9, i64 200
  %12 = load ptr, ptr %11, align 8, !tbaa !83
  %13 = tail call i32 @hwloc_bitmap_copy(ptr noundef %7, ptr noundef %12) #34
  br label %15

14:                                               ; preds = %6
  tail call void @hwloc_bitmap_zero(ptr noundef %7) #34
  br label %15

15:                                               ; preds = %14, %10
  %16 = getelementptr inbounds nuw i8, ptr %0, i64 208
  %17 = load ptr, ptr %16, align 8, !tbaa !84
  %.not37 = icmp eq ptr %17, null
  %18 = load ptr, ptr %2, align 8, !tbaa !83
  br i1 %.not37, label %19, label %21

19:                                               ; preds = %15
  %20 = tail call noalias ptr @hwloc_bitmap_dup(ptr noundef %18) #34
  store ptr %20, ptr %16, align 8, !tbaa !84
  br label %23

21:                                               ; preds = %15
  %22 = tail call i32 @hwloc_bitmap_or(ptr noundef nonnull %17, ptr noundef nonnull %17, ptr noundef %18) #34
  br label %23

23:                                               ; preds = %21, %19
  %24 = getelementptr inbounds nuw i8, ptr %0, i64 144
  %.041 = load ptr, ptr %24, align 8, !tbaa !50
  %.not3842 = icmp eq ptr %.041, null
  br i1 %.not3842, label %._crit_edge, label %.lr.ph

.lr.ph:                                           ; preds = %23, %.lr.ph
  %.043 = phi ptr [ %.0, %.lr.ph ], [ %.041, %23 ]
  %25 = load ptr, ptr %2, align 8, !tbaa !83
  %26 = getelementptr inbounds nuw i8, ptr %.043, i64 200
  %27 = load ptr, ptr %26, align 8, !tbaa !83
  %28 = tail call i32 @hwloc_bitmap_or(ptr noundef %25, ptr noundef %25, ptr noundef %27) #34
  %29 = load ptr, ptr %16, align 8, !tbaa !84
  %30 = getelementptr inbounds nuw i8, ptr %.043, i64 208
  %31 = load ptr, ptr %30, align 8, !tbaa !84
  %32 = tail call i32 @hwloc_bitmap_or(ptr noundef %29, ptr noundef %29, ptr noundef %31) #34
  %33 = getelementptr inbounds nuw i8, ptr %.043, i64 88
  %.0 = load ptr, ptr %33, align 8, !tbaa !50
  %.not38 = icmp eq ptr %.0, null
  br i1 %.not38, label %._crit_edge, label %.lr.ph, !llvm.loop !236

._crit_edge:                                      ; preds = %.lr.ph, %23
  %34 = getelementptr inbounds nuw i8, ptr %0, i64 120
  %.144 = load ptr, ptr %34, align 8, !tbaa !50
  %.not3945 = icmp eq ptr %.144, null
  br i1 %.not3945, label %._crit_edge53, label %.lr.ph48

.preheader:                                       ; preds = %.lr.ph48
  %.249.pre = load ptr, ptr %34, align 8, !tbaa !50
  %.not4050 = icmp eq ptr %.249.pre, null
  br i1 %.not4050, label %._crit_edge53, label %.lr.ph52

.lr.ph48:                                         ; preds = %._crit_edge, %.lr.ph48
  %.146 = phi ptr [ %.1, %.lr.ph48 ], [ %.144, %._crit_edge ]
  tail call fastcc void @propagate_nodeset(ptr noundef nonnull %.146)
  %35 = getelementptr inbounds nuw i8, ptr %.146, i64 88
  %.1 = load ptr, ptr %35, align 8, !tbaa !50
  %.not39 = icmp eq ptr %.1, null
  br i1 %.not39, label %.preheader, label %.lr.ph48, !llvm.loop !237

.lr.ph52:                                         ; preds = %.preheader, %.lr.ph52
  %.251 = phi ptr [ %.2, %.lr.ph52 ], [ %.249.pre, %.preheader ]
  %36 = load ptr, ptr %2, align 8, !tbaa !83
  %37 = getelementptr inbounds nuw i8, ptr %.251, i64 200
  %38 = load ptr, ptr %37, align 8, !tbaa !83
  %39 = tail call i32 @hwloc_bitmap_or(ptr noundef %36, ptr noundef %36, ptr noundef %38) #34
  %40 = load ptr, ptr %16, align 8, !tbaa !84
  %41 = getelementptr inbounds nuw i8, ptr %.251, i64 208
  %42 = load ptr, ptr %41, align 8, !tbaa !84
  %43 = tail call i32 @hwloc_bitmap_or(ptr noundef %40, ptr noundef %40, ptr noundef %42) #34
  %44 = getelementptr inbounds nuw i8, ptr %.251, i64 88
  %.2 = load ptr, ptr %44, align 8, !tbaa !50
  %.not40 = icmp eq ptr %.2, null
  br i1 %.not40, label %._crit_edge53, label %.lr.ph52, !llvm.loop !238

._crit_edge53:                                    ; preds = %.lr.ph52, %._crit_edge, %.preheader
  ret void
}